#include <math.h>
#include <stdio.h>
#include <stdlib.h>
#include <string.h>


int main()
{
	char word[120];
	int n,t,i,j,k,start,end;
	gets(word);
	n=strlen(word);
	start=0;
	t=0;
	for(i=0;word[i]!=' ';i++){
	}
	end=i-1;
	for(j=i+1;j<n;j++){
		if(j+end<=n-1){
			t=0;
			for(k=0;k<=end;k++){
				if(word[j+k]==word[k]){
					t=t+1;
				}
			}
			if(t==end+1){
				printf("%d",j-i-1);
				break;
			}
		}
	}
	return 0;
}